; Function Attrs: nounwind uwtable
define internal fastcc ptr @uv__unknown_err_code(i32 noundef %0) unnamed_addr #0 {
  %2 = alloca [32 x i8], align 16
  call void @llvm.lifetime.start.p0(i64 32, ptr nonnull %2) #26
  %3 = call i32 (ptr, i64, ptr, ...) @snprintf(ptr noundef nonnull dereferenceable(1) %2, i64 noundef 32, ptr noundef nonnull @.str.82, i32 noundef %0) #26
  %4 = call i64 @strlen(ptr noundef nonnull readonly dereferenceable(1) %2) #25
  %5 = add i64 %4, 1
  %.not.i.i = icmp eq i64 %5, 0
  br i1 %.not.i.i, label %uv__strdup.exit, label %uv__malloc.exit.i

uv__malloc.exit.i:                                ; preds = %1
  %6 = load ptr, ptr @uv__allocator.0, align 8, !tbaa !4
  %7 = tail call ptr %6(i64 noundef %5) #26
  %8 = icmp eq ptr %7, null
  br i1 %8, label %uv__strdup.exit, label %9

9:                                                ; preds = %uv__malloc.exit.i
  call void @llvm.memcpy.p0.p0.i64(ptr nonnull align 1 %7, ptr nonnull readonly align 16 %2, i64 %5, i1 false)
  br label %uv__strdup.exit

uv__strdup.exit:                                  ; preds = %1, %uv__malloc.exit.i, %9
  %.0.i = phi ptr [ %7, %9 ], [ null, %uv__malloc.exit.i ], [ null, %1 ]
  %.not = icmp eq ptr %.0.i, null
  %10 = select i1 %.not, ptr @.str.164, ptr %.0.i
  call void @llvm.lifetime.end.p0(i64 32, ptr nonnull %2) #26
  ret ptr %10
}